; Function Attrs: mustprogress uwtable
define void @_ZN6casadi8Function3jitERKNSt7__cxx1112basic_stringIcSt11char_traitsIcESaIcEEES8_RKSt6vectorIS6_SaIS6_EESD_RKSt3mapIS6_NS_11GenericTypeESt4lessIS6_ESaISt4pairIS7_SF_EEE(ptr dead_on_unwind noalias writable sret(%"class.casadi::Function") align 8 %0, ptr noundef nonnull align 8 dereferenceable(32) %1, ptr noundef nonnull align 8 dereferenceable(32) %2, ptr noundef nonnull align 8 dereferenceable(24) %3, ptr noundef nonnull align 8 dereferenceable(24) %4, ptr noundef nonnull align 8 dereferenceable(48) %5) local_unnamed_addr #4 align 2 personality ptr @__gxx_personality_v0 {
  %7 = alloca %"class.std::vector.41", align 8
  %8 = alloca %"class.std::vector.41", align 8
  call void @llvm.lifetime.start.p0(i64 24, ptr nonnull %7) #30
  call void @llvm.memset.p0.i64(ptr noundef nonnull align 8 dereferenceable(24) %7, i8 0, i64 24, i1 false)
  call void @llvm.lifetime.start.p0(i64 24, ptr nonnull %8) #30
  call void @llvm.memset.p0.i64(ptr noundef nonnull align 8 dereferenceable(24) %8, i8 0, i64 24, i1 false)
  invoke void @_ZN6casadi8Function3jitERKNSt7__cxx1112basic_stringIcSt11char_traitsIcESaIcEEES8_RKSt6vectorIS6_SaIS6_EESD_RKS9_INS_8SparsityESaISE_EESI_RKSt3mapIS6_NS_11GenericTypeESt4lessIS6_ESaISt4pairIS7_SK_EEE(ptr dead_on_unwind writable sret(%"class.casadi::Function") align 8 %0, ptr noundef nonnull align 8 dereferenceable(32) %1, ptr noundef nonnull align 8 dereferenceable(32) %2, ptr noundef nonnull align 8 dereferenceable(24) %3, ptr noundef nonnull align 8 dereferenceable(24) %4, ptr noundef nonnull align 8 dereferenceable(24) %7, ptr noundef nonnull align 8 dereferenceable(24) %8, ptr noundef nonnull align 8 dereferenceable(48) %5)
          to label %9 unwind label %38

9:                                                ; preds = %6
  %10 = load ptr, ptr %8, align 8, !tbaa !173
  %11 = getelementptr inbounds nuw i8, ptr %8, i64 8
  %12 = load ptr, ptr %11, align 8, !tbaa !174
  %.not4.i.i.i.i = icmp eq ptr %10, %12
  br i1 %.not4.i.i.i.i, label %_ZSt8_DestroyIPN6casadi8SparsityES1_EvT_S3_RSaIT0_E.exit.i, label %.lr.ph.i.i.i.i

.lr.ph.i.i.i.i:                                   ; preds = %9, %_ZSt8_DestroyIN6casadi8SparsityEEvPT_.exit.i.i.i.i
  %.05.i.i.i.i = phi ptr [ %16, %_ZSt8_DestroyIN6casadi8SparsityEEvPT_.exit.i.i.i.i ], [ %10, %9 ]
  invoke void @_ZN6casadi13GenericSharedINS_12SharedObjectENS_20SharedObjectInternalEE10count_downEv(ptr noundef nonnull align 8 dereferenceable(8) %.05.i.i.i.i)
          to label %_ZSt8_DestroyIN6casadi8SparsityEEvPT_.exit.i.i.i.i unwind label %13

13:                                               ; preds = %.lr.ph.i.i.i.i
  %14 = landingpad { ptr, i32 }
          catch ptr null
  %15 = extractvalue { ptr, i32 } %14, 0
  call void @__clang_call_terminate(ptr %15) #32
  unreachable

_ZSt8_DestroyIN6casadi8SparsityEEvPT_.exit.i.i.i.i: ; preds = %.lr.ph.i.i.i.i
  %16 = getelementptr inbounds nuw i8, ptr %.05.i.i.i.i, i64 8
  %.not.i.i.i.i = icmp eq ptr %16, %12
  br i1 %.not.i.i.i.i, label %_ZSt8_DestroyIPN6casadi8SparsityES1_EvT_S3_RSaIT0_E.exitthread-pre-split.i, label %.lr.ph.i.i.i.i, !llvm.loop !175

_ZSt8_DestroyIPN6casadi8SparsityES1_EvT_S3_RSaIT0_E.exitthread-pre-split.i: ; preds = %_ZSt8_DestroyIN6casadi8SparsityEEvPT_.exit.i.i.i.i
  %.pr.i = load ptr, ptr %8, align 8, !tbaa !173
  br label %_ZSt8_DestroyIPN6casadi8SparsityES1_EvT_S3_RSaIT0_E.exit.i

_ZSt8_DestroyIPN6casadi8SparsityES1_EvT_S3_RSaIT0_E.exit.i: ; preds = %_ZSt8_DestroyIPN6casadi8SparsityES1_EvT_S3_RSaIT0_E.exitthread-pre-split.i, %9
  %17 = phi ptr [ %.pr.i, %_ZSt8_DestroyIPN6casadi8SparsityES1_EvT_S3_RSaIT0_E.exitthread-pre-split.i ], [ %10, %9 ]
  %.not.i.i.i = icmp eq ptr %17, null
  br i1 %.not.i.i.i, label %_ZNSt6vectorIN6casadi8SparsityESaIS1_EED2Ev.exit, label %18

18:                                               ; preds = %_ZSt8_DestroyIPN6casadi8SparsityES1_EvT_S3_RSaIT0_E.exit.i
  %19 = getelementptr inbounds nuw i8, ptr %8, i64 16
  %20 = load ptr, ptr %19, align 8, !tbaa !176
  %21 = ptrtoint ptr %20 to i64
  %22 = ptrtoint ptr %17 to i64
  %23 = sub i64 %21, %22
  call void @_ZdlPvm(ptr noundef nonnull %17, i64 noundef %23) #31
  br label %_ZNSt6vectorIN6casadi8SparsityESaIS1_EED2Ev.exit

_ZNSt6vectorIN6casadi8SparsityESaIS1_EED2Ev.exit: ; preds = %_ZSt8_DestroyIPN6casadi8SparsityES1_EvT_S3_RSaIT0_E.exit.i, %18
  call void @llvm.lifetime.end.p0(i64 24, ptr nonnull %8) #30
  %24 = load ptr, ptr %7, align 8, !tbaa !173
  %25 = getelementptr inbounds nuw i8, ptr %7, i64 8
  %26 = load ptr, ptr %25, align 8, !tbaa !174
  %.not4.i.i.i.i6 = icmp eq ptr %24, %26
  br i1 %.not4.i.i.i.i6, label %_ZSt8_DestroyIPN6casadi8SparsityES1_EvT_S3_RSaIT0_E.exit.i13, label %.lr.ph.i.i.i.i7

.lr.ph.i.i.i.i7:                                  ; preds = %_ZNSt6vectorIN6casadi8SparsityESaIS1_EED2Ev.exit, %_ZSt8_DestroyIN6casadi8SparsityEEvPT_.exit.i.i.i.i9
  %.05.i.i.i.i8 = phi ptr [ %30, %_ZSt8_DestroyIN6casadi8SparsityEEvPT_.exit.i.i.i.i9 ], [ %24, %_ZNSt6vectorIN6casadi8SparsityESaIS1_EED2Ev.exit ]
  invoke void @_ZN6casadi13GenericSharedINS_12SharedObjectENS_20SharedObjectInternalEE10count_downEv(ptr noundef nonnull align 8 dereferenceable(8) %.05.i.i.i.i8)
          to label %_ZSt8_DestroyIN6casadi8SparsityEEvPT_.exit.i.i.i.i9 unwind label %27

27:                                               ; preds = %.lr.ph.i.i.i.i7
  %28 = landingpad { ptr, i32 }
          catch ptr null
  %29 = extractvalue { ptr, i32 } %28, 0
  call void @__clang_call_terminate(ptr %29) #32
  unreachable

_ZSt8_DestroyIN6casadi8SparsityEEvPT_.exit.i.i.i.i9: ; preds = %.lr.ph.i.i.i.i7
  %30 = getelementptr inbounds nuw i8, ptr %.05.i.i.i.i8, i64 8
  %.not.i.i.i.i10 = icmp eq ptr %30, %26
  br i1 %.not.i.i.i.i10, label %_ZSt8_DestroyIPN6casadi8SparsityES1_EvT_S3_RSaIT0_E.exitthread-pre-split.i11, label %.lr.ph.i.i.i.i7, !llvm.loop !175

_ZSt8_DestroyIPN6casadi8SparsityES1_EvT_S3_RSaIT0_E.exitthread-pre-split.i11: ; preds = %_ZSt8_DestroyIN6casadi8SparsityEEvPT_.exit.i.i.i.i9
  %.pr.i12 = load ptr, ptr %7, align 8, !tbaa !173
  br label %_ZSt8_DestroyIPN6casadi8SparsityES1_EvT_S3_RSaIT0_E.exit.i13

_ZSt8_DestroyIPN6casadi8SparsityES1_EvT_S3_RSaIT0_E.exit.i13: ; preds = %_ZSt8_DestroyIPN6casadi8SparsityES1_EvT_S3_RSaIT0_E.exitthread-pre-split.i11, %_ZNSt6vectorIN6casadi8SparsityESaIS1_EED2Ev.exit
  %31 = phi ptr [ %.pr.i12, %_ZSt8_DestroyIPN6casadi8SparsityES1_EvT_S3_RSaIT0_E.exitthread-pre-split.i11 ], [ %24, %_ZNSt6vectorIN6casadi8SparsityESaIS1_EED2Ev.exit ]
  %.not.i.i.i14 = icmp eq ptr %31, null
  br i1 %.not.i.i.i14, label %_ZNSt6vectorIN6casadi8SparsityESaIS1_EED2Ev.exit15, label %32

32:                                               ; preds = %_ZSt8_DestroyIPN6casadi8SparsityES1_EvT_S3_RSaIT0_E.exit.i13
  %33 = getelementptr inbounds nuw i8, ptr %7, i64 16
  %34 = load ptr, ptr %33, align 8, !tbaa !176
  %35 = ptrtoint ptr %34 to i64
  %36 = ptrtoint ptr %31 to i64
  %37 = sub i64 %35, %36
  call void @_ZdlPvm(ptr noundef nonnull %31, i64 noundef %37) #31
  br label %_ZNSt6vectorIN6casadi8SparsityESaIS1_EED2Ev.exit15

_ZNSt6vectorIN6casadi8SparsityESaIS1_EED2Ev.exit15: ; preds = %_ZSt8_DestroyIPN6casadi8SparsityES1_EvT_S3_RSaIT0_E.exit.i13, %32
  call void @llvm.lifetime.end.p0(i64 24, ptr nonnull %7) #30
  ret void

38:                                               ; preds = %6
  %39 = landingpad { ptr, i32 }
          cleanup
  call void @_ZNSt6vectorIN6casadi8SparsityESaIS1_EED2Ev(ptr noundef nonnull align 8 dereferenceable(24) %8) #30
  call void @llvm.lifetime.end.p0(i64 24, ptr nonnull %8) #30
  call void @_ZNSt6vectorIN6casadi8SparsityESaIS1_EED2Ev(ptr noundef nonnull align 8 dereferenceable(24) %7) #30
  call void @llvm.lifetime.end.p0(i64 24, ptr nonnull %7) #30
  resume { ptr, i32 } %39
}